; Function Attrs: mustprogress uwtable
define noundef nonnull align 8 dereferenceable(3097) ptr @_ZN6casadi13CodeGeneratorlsERKNSt7__cxx1112basic_stringIcSt11char_traitsIcESaIcEEE(ptr noundef nonnull returned align 8 dereferenceable(3097) %0, ptr noundef nonnull align 8 dereferenceable(32) %1) local_unnamed_addr #3 align 2 personality ptr @__gxx_personality_v0 {
  %3 = alloca %"class.std::__cxx11::basic_string", align 8
  %4 = alloca %"class.std::__cxx11::basic_string", align 8
  %5 = tail call noundef i64 @_ZNKSt7__cxx1112basic_stringIcSt11char_traitsIcESaIcEE4findEcm(ptr noundef nonnull align 8 dereferenceable(32) %1, i8 noundef signext 10, i64 noundef 0) #19
  %6 = icmp eq i64 %5, -1
  br i1 %6, label %._crit_edge, label %.lr.ph

.lr.ph:                                           ; preds = %2
  %7 = getelementptr inbounds i8, ptr %0, i64 1952
  %8 = getelementptr inbounds i8, ptr %0, i64 2328
  br label %12

._crit_edge:                                      ; preds = %15, %2
  %.013.lcssa = phi i64 [ 0, %2 ], [ %17, %15 ]
  call void @_ZNKSt7__cxx1112basic_stringIcSt11char_traitsIcESaIcEE6substrEmm(ptr dead_on_unwind nonnull writable sret(%"class.std::__cxx11::basic_string") align 8 %3, ptr noundef nonnull align 8 dereferenceable(32) %1, i64 noundef %.013.lcssa, i64 noundef -1)
  invoke void @_ZN6casadi13CodeGenerator15print_formattedERKNSt7__cxx1112basic_stringIcSt11char_traitsIcESaIcEEE(ptr noundef nonnull align 8 dereferenceable(3097) %0, ptr noundef nonnull align 8 dereferenceable(32) %3)
          to label %9 unwind label %10

9:                                                ; preds = %._crit_edge
  call void @_ZNSt7__cxx1112basic_stringIcSt11char_traitsIcESaIcEED1Ev(ptr noundef nonnull align 8 dereferenceable(32) %3) #19
  ret ptr %0

10:                                               ; preds = %._crit_edge
  %11 = landingpad { ptr, i32 }
          cleanup
  br label %22

12:                                               ; preds = %.lr.ph, %15
  %13 = phi i64 [ %5, %.lr.ph ], [ %18, %15 ]
  %.01317 = phi i64 [ 0, %.lr.ph ], [ %17, %15 ]
  %14 = sub i64 %13, %.01317
  call void @_ZNKSt7__cxx1112basic_stringIcSt11char_traitsIcESaIcEE6substrEmm(ptr dead_on_unwind nonnull writable sret(%"class.std::__cxx11::basic_string") align 8 %4, ptr noundef nonnull align 8 dereferenceable(32) %1, i64 noundef %.01317, i64 noundef %14)
  invoke void @_ZN6casadi13CodeGenerator15print_formattedERKNSt7__cxx1112basic_stringIcSt11char_traitsIcESaIcEEE(ptr noundef nonnull align 8 dereferenceable(3097) %0, ptr noundef nonnull align 8 dereferenceable(32) %4)
          to label %15 unwind label %20

15:                                               ; preds = %12
  call void @_ZNSt7__cxx1112basic_stringIcSt11char_traitsIcESaIcEED1Ev(ptr noundef nonnull align 8 dereferenceable(32) %4) #19
  %16 = call noundef nonnull align 8 dereferenceable(8) ptr @_ZStlsISt11char_traitsIcEERSt13basic_ostreamIcT_ES5_c(ptr noundef nonnull align 8 dereferenceable(8) %7, i8 noundef signext 10)
  store i8 1, ptr %8, align 8
  %17 = add nuw i64 %13, 1
  %18 = call noundef i64 @_ZNKSt7__cxx1112basic_stringIcSt11char_traitsIcESaIcEE4findEcm(ptr noundef nonnull align 8 dereferenceable(32) %1, i8 noundef signext 10, i64 noundef %17) #19
  %19 = icmp eq i64 %18, -1
  br i1 %19, label %._crit_edge, label %12, !llvm.loop !44

20:                                               ; preds = %12
  %21 = landingpad { ptr, i32 }
          cleanup
  br label %22

22:                                               ; preds = %20, %10
  %.sink = phi ptr [ %4, %20 ], [ %3, %10 ]
  %.pn = phi { ptr, i32 } [ %21, %20 ], [ %11, %10 ]
  call void @_ZNSt7__cxx1112basic_stringIcSt11char_traitsIcESaIcEED1Ev(ptr noundef nonnull align 8 dereferenceable(32) %.sink) #19
  resume { ptr, i32 } %.pn
}